; Function Attrs: mustprogress uwtable
define noundef ptr @_ZN6icu_7518Normalizer2Factory10getNFCImplER10UErrorCode(ptr nocapture noundef nonnull align 4 dereferenceable(4) %errorCode) local_unnamed_addr #4 align 2 personality ptr @__gxx_personality_v0 {
entry:
  %0 = load i32, ptr %errorCode, align 4
  %cmp.i.i = icmp slt i32 %0, 1
  br i1 %cmp.i.i, label %if.end.i.i, label %cond.end

if.end.i.i:                                       ; preds = %entry
  %1 = load atomic i32, ptr @_ZN6icu_75L11nfcInitOnceE acquire, align 4
  %cmp.not.i.i = icmp eq i32 %1, 2
  br i1 %cmp.not.i.i, label %if.else.i.i, label %land.lhs.true.i.i

land.lhs.true.i.i:                                ; preds = %if.end.i.i
  %call2.i.i = tail call noundef signext i8 @_ZN6icu_7520umtx_initImplPreInitERNS_9UInitOnceE(ptr noundef nonnull align 4 dereferenceable(8) @_ZN6icu_75L11nfcInitOnceE)
  %tobool3.not.i.i = icmp eq i8 %call2.i.i, 0
  br i1 %tobool3.not.i.i, label %if.else.i.i, label %if.then4.i.i

if.then4.i.i:                                     ; preds = %land.lhs.true.i.i
  %call.i.i = tail call noundef ptr @_ZN6icu_7513Norm2AllModes17createNFCInstanceER10UErrorCode(ptr noundef nonnull align 4 dereferenceable(4) %errorCode)
  store ptr %call.i.i, ptr @_ZN6icu_75L12nfcSingletonE, align 8
  tail call void @ucln_common_registerCleanup_75(i32 noundef 15, ptr noundef nonnull @_ZN6icu_75L24uprv_normalizer2_cleanupEv)
  %2 = load i32, ptr %errorCode, align 4
  store i32 %2, ptr getelementptr inbounds ({ { i32 }, i32 }, ptr @_ZN6icu_75L11nfcInitOnceE, i64 0, i32 1), align 4
  tail call void @_ZN6icu_7521umtx_initImplPostInitERNS_9UInitOnceE(ptr noundef nonnull align 4 dereferenceable(8) @_ZN6icu_75L11nfcInitOnceE)
  br label %_ZN6icu_7513Norm2AllModes14getNFCInstanceER10UErrorCode.exit

if.else.i.i:                                      ; preds = %land.lhs.true.i.i, %if.end.i.i
  %3 = load i32, ptr getelementptr inbounds ({ { i32 }, i32 }, ptr @_ZN6icu_75L11nfcInitOnceE, i64 0, i32 1), align 4
  %cmp.i9.i.i = icmp slt i32 %3, 1
  br i1 %cmp.i9.i.i, label %_ZN6icu_7513Norm2AllModes14getNFCInstanceER10UErrorCode.exit, label %if.then8.i.i

if.then8.i.i:                                     ; preds = %if.else.i.i
  store i32 %3, ptr %errorCode, align 4
  br label %_ZN6icu_7513Norm2AllModes14getNFCInstanceER10UErrorCode.exit

_ZN6icu_7513Norm2AllModes14getNFCInstanceER10UErrorCode.exit: ; preds = %if.then4.i.i, %if.else.i.i, %if.then8.i.i
  %4 = load ptr, ptr @_ZN6icu_75L12nfcSingletonE, align 8
  %cmp.not = icmp eq ptr %4, null
  br i1 %cmp.not, label %cond.end, label %cond.true

cond.true:                                        ; preds = %_ZN6icu_7513Norm2AllModes14getNFCInstanceER10UErrorCode.exit
  %5 = load ptr, ptr %4, align 8
  br label %cond.end

cond.end:                                         ; preds = %entry, %_ZN6icu_7513Norm2AllModes14getNFCInstanceER10UErrorCode.exit, %cond.true
  %cond = phi ptr [ %5, %cond.true ], [ null, %_ZN6icu_7513Norm2AllModes14getNFCInstanceER10UErrorCode.exit ], [ null, %entry ]
  ret ptr %cond
}